; Function Attrs: mustprogress nounwind uwtable
define hidden noundef nonnull align 8 dereferenceable(96) ptr @_ZNK16MachCallJavaNode10in_RegMaskEj(ptr noundef nonnull align 8 dereferenceable(148) %0, i32 noundef %1) unnamed_addr #6 align 2 {
  %3 = getelementptr inbounds i8, ptr %0, i64 112
  %4 = load ptr, ptr %3, align 8
  %5 = getelementptr inbounds i8, ptr %4, i64 24
  %6 = load ptr, ptr %5, align 8
  %7 = getelementptr inbounds i8, ptr %6, i64 20
  %8 = load i32, ptr %7, align 4
  %9 = icmp ugt i32 %8, %1
  br i1 %9, label %10, label %15

10:                                               ; preds = %2
  %11 = getelementptr inbounds i8, ptr %0, i64 64
  %12 = load ptr, ptr %11, align 8
  %13 = zext i32 %1 to i64
  %14 = getelementptr inbounds %class.RegMask, ptr %12, i64 %13
  br label %48

15:                                               ; preds = %2
  %16 = load ptr, ptr %0, align 8
  %17 = getelementptr inbounds i8, ptr %16, i64 208
  %18 = load ptr, ptr %17, align 8
  %19 = tail call noundef i32 %18(ptr noundef nonnull align 8 dereferenceable(64) %0) #13
  %20 = icmp eq i32 %19, %1
  br i1 %20, label %21, label %23

21:                                               ; preds = %15
  %22 = load ptr, ptr @_ZN20MachConstantBaseNode12_out_RegMaskE, align 8
  br label %48

23:                                               ; preds = %15
  %24 = tail call align 8 ptr @llvm.threadlocal.address.p0(ptr align 8 @_ZN6Thread12_thr_currentE)
  %25 = load ptr, ptr %24, align 8
  %26 = getelementptr inbounds i8, ptr %25, i64 1808
  %27 = load ptr, ptr %26, align 8
  %28 = getelementptr inbounds i8, ptr %27, i64 128
  %29 = load ptr, ptr %28, align 8
  %30 = getelementptr inbounds i8, ptr %29, i64 2152
  %31 = load ptr, ptr %30, align 8
  %32 = getelementptr inbounds i8, ptr %0, i64 146
  %33 = load i8, ptr %32, align 2
  %34 = trunc i8 %33 to i1
  %.v = select i1 %34, i64 584, i64 456
  %35 = getelementptr inbounds i8, ptr %31, i64 %.v
  %36 = getelementptr inbounds i8, ptr %0, i64 8
  %37 = load ptr, ptr %36, align 8
  %38 = zext i32 %1 to i64
  %39 = getelementptr inbounds ptr, ptr %37, i64 %38
  %40 = load ptr, ptr %39, align 8
  %41 = load ptr, ptr %40, align 8
  %42 = getelementptr inbounds i8, ptr %41, i64 112
  %43 = load ptr, ptr %42, align 8
  %44 = tail call noundef i32 %43(ptr noundef nonnull align 8 dereferenceable(52) %40) #13
  %45 = zext i32 %44 to i64
  %46 = getelementptr inbounds ptr, ptr %35, i64 %45
  %47 = load ptr, ptr %46, align 8
  br label %48

48:                                               ; preds = %23, %21, %10
  %.0 = phi ptr [ %14, %10 ], [ %22, %21 ], [ %47, %23 ]
  ret ptr %.0
}